; ModuleID = '21/1166.c'
source_filename = "21/1166.c"
target datalayout = "e-m:e-p270:32:32-p271:32:32-p272:64:64-i64:64-f80:128-n8:16:32:64-S128"
target triple = "x86_64-pc-linux-gnu"

@.str = private unnamed_addr constant [3 x i8] c"%d\00", align 1
@.str.1 = private unnamed_addr constant [4 x i8] c",%d\00", align 1
@.str.2 = private unnamed_addr constant [4 x i8] c",d%\00", align 1

; Function Attrs: noinline nounwind uwtable
define dso_local double @absss(double %0) #0 {
  %2 = alloca double, align 8
  store double %0, double* %2, align 8
  %3 = load double, double* %2, align 8
  %4 = fcmp olt double %3, 0.000000e+00
  br i1 %4, label %5, label %8

5:                                                ; preds = %1
  %6 = load double, double* %2, align 8
  %7 = fneg double %6
  store double %7, double* %2, align 8
  br label %8

8:                                                ; preds = %5, %1
  %9 = load double, double* %2, align 8
  ret double %9
}

; Function Attrs: noinline nounwind uwtable
define dso_local i32 @main() #0 {
  %1 = alloca i32, align 4
  %2 = alloca i32, align 4
  %3 = alloca [500 x i32], align 16
  %4 = alloca i32, align 4
  %5 = alloca i32, align 4
  %6 = alloca i32, align 4
  %7 = alloca i32, align 4
  %8 = alloca i32, align 4
  %9 = alloca i32, align 4
  %10 = alloca double, align 8
  %11 = alloca double, align 8
  %12 = alloca double, align 8
  store i32 0, i32* %1, align 4
  store i32 0, i32* %5, align 4
  store i32 0, i32* %6, align 4
  store i32 0, i32* %7, align 4
  store double 0.000000e+00, double* %10, align 8
  %13 = call i32 (i8*, ...) @__isoc99_scanf(i8* getelementptr inbounds ([3 x i8], [3 x i8]* @.str, i64 0, i64 0), i32* %2)
  store i32 0, i32* %4, align 4
  br label %14

14:                                               ; preds = %30, %0
  %15 = load i32, i32* %4, align 4
  %16 = load i32, i32* %2, align 4
  %17 = icmp slt i32 %15, %16
  br i1 %17, label %18, label %33

18:                                               ; preds = %14
  %19 = load i32, i32* %4, align 4
  %20 = sext i32 %19 to i64
  %21 = getelementptr inbounds [500 x i32], [500 x i32]* %3, i64 0, i64 %20
  %22 = call i32 (i8*, ...) @__isoc99_scanf(i8* getelementptr inbounds ([3 x i8], [3 x i8]* @.str, i64 0, i64 0), i32* %21)
  %23 = load double, double* %10, align 8
  %24 = load i32, i32* %4, align 4
  %25 = sext i32 %24 to i64
  %26 = getelementptr inbounds [500 x i32], [500 x i32]* %3, i64 0, i64 %25
  %27 = load i32, i32* %26, align 4
  %28 = sitofp i32 %27 to double
  %29 = fadd double %23, %28
  store double %29, double* %10, align 8
  br label %30

30:                                               ; preds = %18
  %31 = load i32, i32* %4, align 4
  %32 = add nsw i32 %31, 1
  store i32 %32, i32* %4, align 4
  br label %14

33:                                               ; preds = %14
  %34 = load double, double* %10, align 8
  %35 = load i32, i32* %2, align 4
  %36 = sitofp i32 %35 to double
  %37 = fdiv double %34, %36
  store double %37, double* %10, align 8
  %38 = load double, double* %10, align 8
  %39 = getelementptr inbounds [500 x i32], [500 x i32]* %3, i64 0, i64 0
  %40 = load i32, i32* %39, align 16
  %41 = sitofp i32 %40 to double
  %42 = fsub double %38, %41
  %43 = call double @absss(double %42)
  store double %43, double* %11, align 8
  store i32 1, i32* %4, align 4
  br label %44

44:                                               ; preds = %69, %33
  %45 = load i32, i32* %4, align 4
  %46 = load i32, i32* %2, align 4
  %47 = icmp slt i32 %45, %46
  br i1 %47, label %48, label %72

48:                                               ; preds = %44
  %49 = load i32, i32* %4, align 4
  %50 = sext i32 %49 to i64
  %51 = getelementptr inbounds [500 x i32], [500 x i32]* %3, i64 0, i64 %50
  %52 = load i32, i32* %51, align 4
  %53 = sitofp i32 %52 to double
  %54 = load double, double* %10, align 8
  %55 = fsub double %53, %54
  %56 = call double @absss(double %55)
  %57 = load double, double* %11, align 8
  %58 = fcmp ogt double %56, %57
  br i1 %58, label %59, label %68

59:                                               ; preds = %48
  %60 = load i32, i32* %4, align 4
  %61 = sext i32 %60 to i64
  %62 = getelementptr inbounds [500 x i32], [500 x i32]* %3, i64 0, i64 %61
  %63 = load i32, i32* %62, align 4
  %64 = sitofp i32 %63 to double
  %65 = load double, double* %10, align 8
  %66 = fsub double %64, %65
  %67 = call double @absss(double %66)
  store double %67, double* %11, align 8
  br label %68

68:                                               ; preds = %59, %48
  br label %69

69:                                               ; preds = %68
  %70 = load i32, i32* %4, align 4
  %71 = add nsw i32 %70, 1
  store i32 %71, i32* %4, align 4
  br label %44

72:                                               ; preds = %44
  store i32 0, i32* %4, align 4
  br label %73

73:                                               ; preds = %100, %72
  %74 = load i32, i32* %4, align 4
  %75 = load i32, i32* %2, align 4
  %76 = icmp slt i32 %74, %75
  br i1 %76, label %77, label %103

77:                                               ; preds = %73
  %78 = load i32, i32* %4, align 4
  %79 = sext i32 %78 to i64
  %80 = getelementptr inbounds [500 x i32], [500 x i32]* %3, i64 0, i64 %79
  %81 = load i32, i32* %80, align 4
  %82 = sitofp i32 %81 to double
  %83 = load double, double* %10, align 8
  %84 = fsub double %82, %83
  %85 = fptosi double %84 to i32
  %86 = call i32 @abs(i32 %85) #3
  %87 = sitofp i32 %86 to double
  %88 = load double, double* %11, align 8
  %89 = fcmp oeq double %87, %88
  br i1 %89, label %90, label %99

90:                                               ; preds = %77
  %91 = load i32, i32* %4, align 4
  %92 = sext i32 %91 to i64
  %93 = getelementptr inbounds [500 x i32], [500 x i32]* %3, i64 0, i64 %92
  %94 = load i32, i32* %93, align 4
  %95 = sitofp i32 %94 to double
  %96 = load double, double* %10, align 8
  %97 = fsub double %95, %96
  %98 = call double @absss(double %97)
  store double %98, double* %11, align 8
  br label %99

99:                                               ; preds = %90, %77
  br label %100

100:                                              ; preds = %99
  %101 = load i32, i32* %4, align 4
  %102 = add nsw i32 %101, 1
  store i32 %102, i32* %4, align 4
  br label %73

103:                                              ; preds = %73
  store i32 0, i32* %4, align 4
  br label %104

104:                                              ; preds = %145, %103
  %105 = load i32, i32* %4, align 4
  %106 = load i32, i32* %2, align 4
  %107 = icmp slt i32 %105, %106
  br i1 %107, label %108, label %148

108:                                              ; preds = %104
  %109 = load i32, i32* %4, align 4
  %110 = sext i32 %109 to i64
  %111 = getelementptr inbounds [500 x i32], [500 x i32]* %3, i64 0, i64 %110
  %112 = load i32, i32* %111, align 4
  %113 = sitofp i32 %112 to double
  %114 = load double, double* %10, align 8
  %115 = fsub double %113, %114
  %116 = call double @absss(double %115)
  %117 = load double, double* %11, align 8
  %118 = fcmp oeq double %116, %117
  br i1 %118, label %119, label %144

119:                                              ; preds = %108
  %120 = load i32, i32* %4, align 4
  %121 = sext i32 %120 to i64
  %122 = getelementptr inbounds [500 x i32], [500 x i32]* %3, i64 0, i64 %121
  %123 = load i32, i32* %122, align 4
  %124 = sitofp i32 %123 to double
  %125 = load double, double* %10, align 8
  %126 = fcmp olt double %124, %125
  br i1 %126, label %127, label %131

127:                                              ; preds = %119
  %128 = load i32, i32* %5, align 4
  %129 = add nsw i32 %128, 1
  store i32 %129, i32* %5, align 4
  %130 = load i32, i32* %4, align 4
  store i32 %130, i32* %8, align 4
  br label %131

131:                                              ; preds = %127, %119
  %132 = load i32, i32* %4, align 4
  %133 = sext i32 %132 to i64
  %134 = getelementptr inbounds [500 x i32], [500 x i32]* %3, i64 0, i64 %133
  %135 = load i32, i32* %134, align 4
  %136 = sitofp i32 %135 to double
  %137 = load double, double* %10, align 8
  %138 = fcmp ogt double %136, %137
  br i1 %138, label %139, label %143

139:                                              ; preds = %131
  %140 = load i32, i32* %6, align 4
  %141 = add nsw i32 %140, 1
  store i32 %141, i32* %6, align 4
  %142 = load i32, i32* %4, align 4
  store i32 %142, i32* %9, align 4
  br label %143

143:                                              ; preds = %139, %131
  br label %144

144:                                              ; preds = %143, %108
  br label %145

145:                                              ; preds = %144
  %146 = load i32, i32* %4, align 4
  %147 = add nsw i32 %146, 1
  store i32 %147, i32* %4, align 4
  br label %104

148:                                              ; preds = %104
  %149 = load i32, i32* %5, align 4
  %150 = icmp sgt i32 %149, 0
  br i1 %150, label %151, label %185

151:                                              ; preds = %148
  %152 = load i32, i32* %8, align 4
  %153 = sext i32 %152 to i64
  %154 = getelementptr inbounds [500 x i32], [500 x i32]* %3, i64 0, i64 %153
  %155 = load i32, i32* %154, align 4
  %156 = call i32 (i8*, ...) @printf(i8* getelementptr inbounds ([3 x i8], [3 x i8]* @.str, i64 0, i64 0), i32 %155)
  store i32 1, i32* %4, align 4
  br label %157

157:                                              ; preds = %167, %151
  %158 = load i32, i32* %4, align 4
  %159 = load i32, i32* %5, align 4
  %160 = icmp slt i32 %158, %159
  br i1 %160, label %161, label %170

161:                                              ; preds = %157
  %162 = load i32, i32* %8, align 4
  %163 = sext i32 %162 to i64
  %164 = getelementptr inbounds [500 x i32], [500 x i32]* %3, i64 0, i64 %163
  %165 = load i32, i32* %164, align 4
  %166 = call i32 (i8*, ...) @printf(i8* getelementptr inbounds ([4 x i8], [4 x i8]* @.str.1, i64 0, i64 0), i32 %165)
  br label %167

167:                                              ; preds = %161
  %168 = load i32, i32* %4, align 4
  %169 = add nsw i32 %168, 1
  store i32 %169, i32* %4, align 4
  br label %157

170:                                              ; preds = %157
  store i32 0, i32* %4, align 4
  br label %171

171:                                              ; preds = %181, %170
  %172 = load i32, i32* %4, align 4
  %173 = load i32, i32* %6, align 4
  %174 = icmp slt i32 %172, %173
  br i1 %174, label %175, label %184

175:                                              ; preds = %171
  %176 = load i32, i32* %9, align 4
  %177 = sext i32 %176 to i64
  %178 = getelementptr inbounds [500 x i32], [500 x i32]* %3, i64 0, i64 %177
  %179 = load i32, i32* %178, align 4
  %180 = call i32 (i8*, ...) @printf(i8* getelementptr inbounds ([4 x i8], [4 x i8]* @.str.1, i64 0, i64 0), i32 %179)
  br label %181

181:                                              ; preds = %175
  %182 = load i32, i32* %4, align 4
  %183 = add nsw i32 %182, 1
  store i32 %183, i32* %4, align 4
  br label %171

184:                                              ; preds = %171
  br label %205

185:                                              ; preds = %148
  %186 = load i32, i32* %9, align 4
  %187 = sext i32 %186 to i64
  %188 = getelementptr inbounds [500 x i32], [500 x i32]* %3, i64 0, i64 %187
  %189 = load i32, i32* %188, align 4
  %190 = call i32 (i8*, ...) @printf(i8* getelementptr inbounds ([3 x i8], [3 x i8]* @.str, i64 0, i64 0), i32 %189)
  store i32 1, i32* %4, align 4
  br label %191

191:                                              ; preds = %201, %185
  %192 = load i32, i32* %4, align 4
  %193 = load i32, i32* %6, align 4
  %194 = icmp slt i32 %192, %193
  br i1 %194, label %195, label %204

195:                                              ; preds = %191
  %196 = load i32, i32* %9, align 4
  %197 = sext i32 %196 to i64
  %198 = getelementptr inbounds [500 x i32], [500 x i32]* %3, i64 0, i64 %197
  %199 = load i32, i32* %198, align 4
  %200 = call i32 (i8*, ...) @printf(i8* getelementptr inbounds ([4 x i8], [4 x i8]* @.str.2, i64 0, i64 0), i32 %199)
  br label %201

201:                                              ; preds = %195
  %202 = load i32, i32* %4, align 4
  %203 = add nsw i32 %202, 1
  store i32 %203, i32* %4, align 4
  br label %191

204:                                              ; preds = %191
  br label %205

205:                                              ; preds = %204, %184
  ret i32 0
}

declare dso_local i32 @__isoc99_scanf(i8*, ...) #1

; Function Attrs: nounwind readnone
declare dso_local i32 @abs(i32) #2

declare dso_local i32 @printf(i8*, ...) #1


!llvm.module.flags = !{!0}
!llvm.ident = !{!1}

!0 = !{i32 1, !"wchar_size", i32 4}
!1 = !{!"clang version 10.0.0-4ubuntu1 "}
